target datalayout = "e-m:e-p270:32:32-p271:32:32-p272:64:64-i64:64-i128:128-f80:128-n8:16:32:64-S128"
target triple = "x86_64-pc-linux-gnu"

%class.RtpAudioFile = type { %class.QIODevice, ptr, ptr, i64, i64, i64, i64, %struct.rtp_frame_info }
%class.QIODevice = type { %class.QObject }
%class.QObject = type { ptr, %class.QScopedPointer }
%class.QScopedPointer = type { ptr }
%struct.rtp_frame_info = type { i64, i64, i64, i32, i32 }

; Function Attrs: mustprogress uwtable
define noundef zeroext i1 @_ZN12RtpAudioFile16readFrameSamplesEPiPPsPjS3_P14rtp_frame_type(ptr noundef nonnull align 8 dereferenceable(96) %0, ptr noundef %1, ptr noundef %2, ptr noundef %3, ptr noundef %4, ptr noundef %5) #0 align 2 {
  %7 = alloca i1, align 1
  %8 = alloca ptr, align 8
  %9 = alloca ptr, align 8
  %10 = alloca ptr, align 8
  %11 = alloca ptr, align 8
  %12 = alloca ptr, align 8
  %13 = alloca ptr, align 8
  %14 = alloca %struct.rtp_frame_info, align 8
  %15 = alloca i64, align 8
  store ptr %0, ptr %8, align 8
  store ptr %1, ptr %9, align 8
  store ptr %2, ptr %10, align 8
  store ptr %3, ptr %11, align 8
  store ptr %4, ptr %12, align 8
  store ptr %5, ptr %13, align 8
  %16 = load ptr, ptr %8, align 8
  store i64 0, ptr %15, align 8
  %17 = getelementptr inbounds %class.RtpAudioFile, ptr %16, i32 0, i32 2
  %18 = load ptr, ptr %17, align 8
  %19 = call noundef i64 @_ZN9QIODevice4readEPcx(ptr noundef nonnull align 8 dereferenceable(16) %18, ptr noundef %14, i64 noundef 32)
  %20 = icmp ne i64 %19, 0
  br i1 %20, label %22, label %21

21:                                               ; preds = %6
  store i1 false, ptr %7, align 1
  br label %83

22:                                               ; preds = %6
  %23 = getelementptr inbounds %struct.rtp_frame_info, ptr %14, i32 0, i32 3
  %24 = load i32, ptr %23, align 8
  %25 = load ptr, ptr %12, align 8
  store i32 %24, ptr %25, align 4
  %26 = getelementptr inbounds %struct.rtp_frame_info, ptr %14, i32 0, i32 4
  %27 = load i32, ptr %26, align 4
  %28 = load ptr, ptr %13, align 8
  store i32 %27, ptr %28, align 4
  %29 = getelementptr inbounds %struct.rtp_frame_info, ptr %14, i32 0, i32 4
  %30 = load i32, ptr %29, align 4
  %31 = icmp eq i32 %30, 0
  br i1 %31, label %32, label %75

32:                                               ; preds = %22
  %33 = getelementptr inbounds %struct.rtp_frame_info, ptr %14, i32 0, i32 2
  %34 = load i64, ptr %33, align 8
  %35 = load ptr, ptr %9, align 8
  %36 = load i32, ptr %35, align 4
  %37 = sext i32 %36 to i64
  %38 = icmp sgt i64 %34, %37
  br i1 %38, label %39, label %59

39:                                               ; preds = %32
  br label %40

40:                                               ; preds = %47, %39
  %41 = getelementptr inbounds %struct.rtp_frame_info, ptr %14, i32 0, i32 2
  %42 = load i64, ptr %41, align 8
  %43 = load ptr, ptr %9, align 8
  %44 = load i32, ptr %43, align 4
  %45 = sext i32 %44 to i64
  %46 = icmp sgt i64 %42, %45
  br i1 %46, label %47, label %51

47:                                               ; preds = %40
  %48 = load ptr, ptr %9, align 8
  %49 = load i32, ptr %48, align 4
  %50 = mul i32 %49, 2
  store i32 %50, ptr %48, align 4
  br label %40, !llvm.loop !4

51:                                               ; preds = %40
  %52 = load ptr, ptr %10, align 8
  %53 = load ptr, ptr %52, align 8
  %54 = load ptr, ptr %9, align 8
  %55 = load i32, ptr %54, align 4
  %56 = sext i32 %55 to i64
  %57 = call ptr @g_realloc(ptr noundef %53, i64 noundef %56)
  %58 = load ptr, ptr %10, align 8
  store ptr %57, ptr %58, align 8
  br label %59

59:                                               ; preds = %51, %32
  %60 = getelementptr inbounds %class.RtpAudioFile, ptr %16, i32 0, i32 1
  %61 = load ptr, ptr %60, align 8
  %62 = getelementptr inbounds %struct.rtp_frame_info, ptr %14, i32 0, i32 1
  %63 = load i64, ptr %62, align 8
  %64 = load ptr, ptr %61, align 8
  %65 = getelementptr inbounds ptr, ptr %64, i64 17
  %66 = load ptr, ptr %65, align 8
  %67 = call noundef zeroext i1 %66(ptr noundef nonnull align 8 dereferenceable(16) %61, i64 noundef %63)
  %68 = getelementptr inbounds %class.RtpAudioFile, ptr %16, i32 0, i32 1
  %69 = load ptr, ptr %68, align 8
  %70 = load ptr, ptr %10, align 8
  %71 = load ptr, ptr %70, align 8
  %72 = getelementptr inbounds %struct.rtp_frame_info, ptr %14, i32 0, i32 2
  %73 = load i64, ptr %72, align 8
  %74 = call noundef i64 @_ZN9QIODevice4readEPcx(ptr noundef nonnull align 8 dereferenceable(16) %69, ptr noundef %71, i64 noundef %73)
  store i64 %74, ptr %15, align 8
  br label %78

75:                                               ; preds = %22
  %76 = getelementptr inbounds %struct.rtp_frame_info, ptr %14, i32 0, i32 2
  %77 = load i64, ptr %76, align 8
  store i64 %77, ptr %15, align 8
  br label %78

78:                                               ; preds = %75, %59
  %79 = load i64, ptr %15, align 8
  %80 = udiv i64 %79, 2
  %81 = trunc i64 %80 to i32
  %82 = load ptr, ptr %11, align 8
  store i32 %81, ptr %82, align 4
  store i1 true, ptr %7, align 1
  br label %83

83:                                               ; preds = %78, %21
  %84 = load i1, ptr %7, align 1
  ret i1 %84
}