; Function Attrs: mustprogress uwtable
define noundef zeroext i1 @_ZN12RtpAudioFile16readFrameSamplesEPiPPsPjS3_P14rtp_frame_type(ptr nocapture noundef nonnull readonly align 8 dereferenceable(96) %0, ptr nocapture noundef %1, ptr nocapture noundef %2, ptr nocapture noundef writeonly %3, ptr nocapture noundef writeonly %4, ptr nocapture noundef writeonly %5) local_unnamed_addr #0 align 2 {
  %7 = alloca %struct.rtp_frame_info, align 8
  %8 = getelementptr inbounds i8, ptr %0, i64 24
  %9 = load ptr, ptr %8, align 8
  %10 = call noundef i64 @_ZN9QIODevice4readEPcx(ptr noundef nonnull align 8 dereferenceable(16) %9, ptr noundef nonnull %7, i64 noundef 32)
  %.not = icmp ne i64 %10, 0
  br i1 %.not, label %11, label %46

11:                                               ; preds = %6
  %12 = getelementptr inbounds i8, ptr %7, i64 24
  %13 = load i32, ptr %12, align 8
  store i32 %13, ptr %4, align 4
  %14 = getelementptr inbounds i8, ptr %7, i64 28
  %15 = load i32, ptr %14, align 4
  store i32 %15, ptr %5, align 4
  %16 = icmp eq i32 %15, 0
  %17 = getelementptr inbounds i8, ptr %7, i64 16
  %18 = load i64, ptr %17, align 8
  br i1 %16, label %19, label %43

19:                                               ; preds = %11
  %20 = load i32, ptr %1, align 4
  %21 = sext i32 %20 to i64
  %22 = icmp sgt i64 %18, %21
  br i1 %22, label %.lr.ph, label %30

.lr.ph:                                           ; preds = %19, %.lr.ph
  %23 = phi i32 [ %24, %.lr.ph ], [ %20, %19 ]
  %24 = shl i32 %23, 1
  %25 = sext i32 %24 to i64
  %26 = icmp sgt i64 %18, %25
  br i1 %26, label %.lr.ph, label %27, !llvm.loop !4

27:                                               ; preds = %.lr.ph
  store i32 %24, ptr %1, align 4
  %28 = load ptr, ptr %2, align 8
  %29 = call ptr @g_realloc(ptr noundef %28, i64 noundef %25)
  store ptr %29, ptr %2, align 8
  br label %30

30:                                               ; preds = %27, %19
  %31 = getelementptr inbounds i8, ptr %0, i64 16
  %32 = load ptr, ptr %31, align 8
  %33 = getelementptr inbounds i8, ptr %7, i64 8
  %34 = load i64, ptr %33, align 8
  %35 = load ptr, ptr %32, align 8
  %36 = getelementptr inbounds i8, ptr %35, i64 136
  %37 = load ptr, ptr %36, align 8
  %38 = call noundef zeroext i1 %37(ptr noundef nonnull align 8 dereferenceable(16) %32, i64 noundef %34)
  %39 = load ptr, ptr %31, align 8
  %40 = load ptr, ptr %2, align 8
  %41 = load i64, ptr %17, align 8
  %42 = call noundef i64 @_ZN9QIODevice4readEPcx(ptr noundef nonnull align 8 dereferenceable(16) %39, ptr noundef %40, i64 noundef %41)
  br label %43

43:                                               ; preds = %11, %30
  %.0 = phi i64 [ %42, %30 ], [ %18, %11 ]
  %44 = lshr i64 %.0, 1
  %45 = trunc i64 %44 to i32
  store i32 %45, ptr %3, align 4
  br label %46

46:                                               ; preds = %6, %43
  ret i1 %.not
}